target datalayout = "e-m:e-p270:32:32-p271:32:32-p272:64:64-i64:64-i128:128-f80:128-n8:16:32:64-S128"
target triple = "x86_64-pc-linux-gnu"

%struct.rb_data_type_struct = type { ptr, %struct.anon, ptr, ptr, i64 }
%struct.anon = type { ptr, ptr, ptr, ptr, [1 x ptr] }
%struct.RTypedData = type { %struct.RBasic, ptr, i64, ptr }
%struct.RBasic = type { i64, i64 }

@eOCSPError = internal global i64 0, align 8
@cOCSPCertId = internal global i64 0, align 8
@rb_eRuntimeError = external global i64, align 8
@ossl_ocsp_basicresp_type = internal constant %struct.rb_data_type_struct { ptr @.str.76, %struct.anon { ptr null, ptr @ossl_ocsp_basicresp_free, ptr null, ptr null, [1 x ptr] zeroinitializer }, ptr null, ptr null, i64 33 }, align 8
@.str.75 = private unnamed_addr constant [29 x i8] c"Response wasn't initialized!\00", align 1
@ossl_ocsp_certid_type = internal constant %struct.rb_data_type_struct { ptr @.str.80, %struct.anon { ptr null, ptr @ossl_ocsp_certid_free, ptr null, ptr null, [1 x ptr] zeroinitializer }, ptr null, ptr null, i64 33 }, align 8
@.str.77 = private unnamed_addr constant [28 x i8] c"Cert ID wasn't initialized!\00", align 1

; Function Attrs: inlinehint nounwind sspstrong willreturn memory(none) uwtable
define internal i64 @RB_INT2FIX(i64 noundef %0) #8 {
  %2 = alloca i64, align 8
  %3 = alloca i64, align 8
  %4 = alloca i64, align 8
  %5 = alloca i64, align 8
  %6 = alloca i64, align 8
  %7 = alloca i64, align 8
  store i64 %0, ptr %2, align 8, !tbaa !6
  call void @llvm.lifetime.start.p0(i64 8, ptr %3) #15
  %8 = load i64, ptr %2, align 8, !tbaa !6
  store i64 %8, ptr %3, align 8, !tbaa !6
  call void @llvm.lifetime.start.p0(i64 8, ptr %4) #15
  %9 = load i64, ptr %3, align 8, !tbaa !6
  %10 = shl i64 %9, 1
  %11 = add i64 %10, 1
  store i64 %11, ptr %4, align 8, !tbaa !6
  call void @llvm.lifetime.start.p0(i64 8, ptr %5) #15
  %12 = load i64, ptr %4, align 8, !tbaa !6
  store i64 %12, ptr %5, align 8, !tbaa !6
  call void @llvm.lifetime.start.p0(i64 8, ptr %6) #15
  %13 = load i64, ptr %5, align 8, !tbaa !6
  store i64 %13, ptr %6, align 8, !tbaa !6
  call void @llvm.lifetime.start.p0(i64 8, ptr %7) #15
  %14 = load i64, ptr %6, align 8, !tbaa !6
  store i64 %14, ptr %7, align 8, !tbaa !6
  %15 = load i64, ptr %7, align 8, !tbaa !6
  call void @llvm.lifetime.end.p0(i64 8, ptr %7) #15
  call void @llvm.lifetime.end.p0(i64 8, ptr %6) #15
  call void @llvm.lifetime.end.p0(i64 8, ptr %5) #15
  call void @llvm.lifetime.end.p0(i64 8, ptr %4) #15
  call void @llvm.lifetime.end.p0(i64 8, ptr %3) #15
  ret i64 %15
}

; Function Attrs: inlinehint nounwind sspstrong uwtable
define internal i64 @rb_int2num_inline(i32 noundef %0) #2 {
  %2 = alloca i64, align 8
  %3 = alloca i32, align 4
  store i32 %0, ptr %3, align 4, !tbaa !17
  %4 = load i32, ptr %3, align 4, !tbaa !17
  %5 = sext i32 %4 to i64
  %6 = icmp slt i64 %5, 4611686018427387904
  br i1 %6, label %7, label %15

7:                                                ; preds = %1
  %8 = load i32, ptr %3, align 4, !tbaa !17
  %9 = sext i32 %8 to i64
  %10 = icmp sge i64 %9, -4611686018427387904
  br i1 %10, label %11, label %15

11:                                               ; preds = %7
  %12 = load i32, ptr %3, align 4, !tbaa !17
  %13 = sext i32 %12 to i64
  %14 = call i64 @RB_INT2FIX(i64 noundef %13) #17
  store i64 %14, ptr %2, align 8
  br label %19

15:                                               ; preds = %7, %1
  %16 = load i32, ptr %3, align 4, !tbaa !17
  %17 = sext i32 %16 to i64
  %18 = call i64 @rb_int2big(i64 noundef %17)
  store i64 %18, ptr %2, align 8
  br label %19

19:                                               ; preds = %15, %11
  %20 = load i64, ptr %2, align 8
  ret i64 %20
}

; Function Attrs: nounwind sspstrong uwtable
define internal i64 @ossl_ocspcertid_new(ptr noundef %0) #0 {
  %2 = alloca ptr, align 8
  %3 = alloca i64, align 8
  store ptr %0, ptr %2, align 8, !tbaa !25
  call void @llvm.lifetime.start.p0(i64 8, ptr %3) #15
  %4 = load i64, ptr @cOCSPCertId, align 8, !tbaa !6
  %5 = call i64 @rb_data_typed_object_wrap(i64 noundef %4, ptr noundef null, ptr noundef @ossl_ocsp_certid_type)
  store i64 %5, ptr %3, align 8, !tbaa !6
  br label %6

6:                                                ; preds = %1
  %7 = load ptr, ptr %2, align 8, !tbaa !25
  %8 = icmp ne ptr %7, null
  br i1 %8, label %11, label %9

9:                                                ; preds = %6
  %10 = load i64, ptr @rb_eRuntimeError, align 8, !tbaa !6
  call void (i64, ptr, ...) @ossl_raise(i64 noundef %10, ptr noundef @.str.77) #16
  unreachable

11:                                               ; preds = %6
  %12 = load ptr, ptr %2, align 8, !tbaa !25
  %13 = load i64, ptr %3, align 8, !tbaa !6
  %14 = inttoptr i64 %13 to ptr
  %15 = getelementptr inbounds nuw %struct.RTypedData, ptr %14, i32 0, i32 3
  store ptr %12, ptr %15, align 8, !tbaa !13
  br label %16

16:                                               ; preds = %11
  br label %17

17:                                               ; preds = %16
  %18 = load i64, ptr %3, align 8, !tbaa !6
  call void @llvm.lifetime.end.p0(i64 8, ptr %3) #15
  ret i64 %18
}

; Function Attrs: nounwind sspstrong uwtable
define internal i64 @ossl_ocspbres_get_status(i64 noundef %0) #0 {
  %2 = alloca i64, align 8
  %3 = alloca ptr, align 8
  %4 = alloca ptr, align 8
  %5 = alloca ptr, align 8
  %6 = alloca ptr, align 8
  %7 = alloca ptr, align 8
  %8 = alloca ptr, align 8
  %9 = alloca i32, align 4
  %10 = alloca i32, align 4
  %11 = alloca ptr, align 8
  %12 = alloca i64, align 8
  %13 = alloca i64, align 8
  %14 = alloca i64, align 8
  %15 = alloca i32, align 4
  %16 = alloca i32, align 4
  %17 = alloca i32, align 4
  %18 = alloca i32, align 4
  store i64 %0, ptr %2, align 8, !tbaa !6
  call void @llvm.lifetime.start.p0(i64 8, ptr %3) #15
  call void @llvm.lifetime.start.p0(i64 8, ptr %4) #15
  call void @llvm.lifetime.start.p0(i64 8, ptr %5) #15
  call void @llvm.lifetime.start.p0(i64 8, ptr %6) #15
  call void @llvm.lifetime.start.p0(i64 8, ptr %7) #15
  call void @llvm.lifetime.start.p0(i64 8, ptr %8) #15
  call void @llvm.lifetime.start.p0(i64 4, ptr %9) #15
  call void @llvm.lifetime.start.p0(i64 4, ptr %10) #15
  call void @llvm.lifetime.start.p0(i64 8, ptr %11) #15
  call void @llvm.lifetime.start.p0(i64 8, ptr %12) #15
  call void @llvm.lifetime.start.p0(i64 8, ptr %13) #15
  call void @llvm.lifetime.start.p0(i64 8, ptr %14) #15
  call void @llvm.lifetime.start.p0(i64 4, ptr %15) #15
  call void @llvm.lifetime.start.p0(i64 4, ptr %16) #15
  call void @llvm.lifetime.start.p0(i64 4, ptr %17) #15
  call void @llvm.lifetime.start.p0(i64 4, ptr %18) #15
  br label %19

19:                                               ; preds = %1
  %20 = load i64, ptr %2, align 8, !tbaa !6
  %21 = call ptr @rb_check_typeddata(i64 noundef %20, ptr noundef @ossl_ocsp_basicresp_type)
  store ptr %21, ptr %3, align 8, !tbaa !23
  %22 = load ptr, ptr %3, align 8, !tbaa !23
  %23 = icmp ne ptr %22, null
  br i1 %23, label %26, label %24

24:                                               ; preds = %19
  %25 = load i64, ptr @rb_eRuntimeError, align 8, !tbaa !6
  call void (i64, ptr, ...) @ossl_raise(i64 noundef %25, ptr noundef @.str.75) #16
  unreachable

26:                                               ; preds = %19
  br label %27

27:                                               ; preds = %26
  br label %28

28:                                               ; preds = %27
  %29 = call i64 @rb_ary_new()
  store i64 %29, ptr %12, align 8, !tbaa !6
  %30 = load ptr, ptr %3, align 8, !tbaa !23
  %31 = call i32 @OCSP_resp_count(ptr noundef %30)
  store i32 %31, ptr %15, align 4, !tbaa !17
  store i32 0, ptr %17, align 4, !tbaa !17
  br label %32

32:                                               ; preds = %125, %28
  %33 = load i32, ptr %17, align 4, !tbaa !17
  %34 = load i32, ptr %15, align 4, !tbaa !17
  %35 = icmp slt i32 %33, %34
  br i1 %35, label %36, label %128

36:                                               ; preds = %32
  %37 = load ptr, ptr %3, align 8, !tbaa !23
  %38 = load i32, ptr %17, align 4, !tbaa !17
  %39 = call ptr @OCSP_resp_get0(ptr noundef %37, i32 noundef %38)
  store ptr %39, ptr %4, align 8, !tbaa !46
  %40 = load ptr, ptr %4, align 8, !tbaa !46
  %41 = icmp ne ptr %40, null
  br i1 %41, label %43, label %42

42:                                               ; preds = %36
  br label %125

43:                                               ; preds = %36
  store ptr null, ptr %8, align 8, !tbaa !43
  store ptr null, ptr %7, align 8, !tbaa !43
  store ptr null, ptr %6, align 8, !tbaa !43
  %44 = load ptr, ptr %4, align 8, !tbaa !46
  %45 = call i32 @OCSP_single_get0_status(ptr noundef %44, ptr noundef %10, ptr noundef %6, ptr noundef %7, ptr noundef %8)
  store i32 %45, ptr %9, align 4, !tbaa !17
  %46 = load i32, ptr %9, align 4, !tbaa !17
  %47 = icmp slt i32 %46, 0
  br i1 %47, label %48, label %49

48:                                               ; preds = %43
  br label %125

49:                                               ; preds = %43
  %50 = load ptr, ptr %4, align 8, !tbaa !46
  %51 = call ptr @OCSP_SINGLERESP_get0_id(ptr noundef %50)
  %52 = call ptr @OCSP_CERTID_dup(ptr noundef %51)
  store ptr %52, ptr %5, align 8, !tbaa !25
  %53 = icmp ne ptr %52, null
  br i1 %53, label %56, label %54

54:                                               ; preds = %49
  %55 = load i64, ptr @eOCSPError, align 8, !tbaa !6
  call void (i64, ptr, ...) @ossl_raise(i64 noundef %55, ptr noundef null) #16
  unreachable

56:                                               ; preds = %49
  %57 = call i64 @rb_ary_new()
  store i64 %57, ptr %13, align 8, !tbaa !6
  %58 = load i64, ptr %13, align 8, !tbaa !6
  %59 = load ptr, ptr %5, align 8, !tbaa !25
  %60 = call i64 @ossl_ocspcertid_new(ptr noundef %59)
  %61 = call i64 @rb_ary_push(i64 noundef %58, i64 noundef %60)
  %62 = load i64, ptr %13, align 8, !tbaa !6
  %63 = load i32, ptr %9, align 4, !tbaa !17
  %64 = call i64 @rb_int2num_inline(i32 noundef %63)
  %65 = call i64 @rb_ary_push(i64 noundef %62, i64 noundef %64)
  %66 = load i64, ptr %13, align 8, !tbaa !6
  %67 = load i32, ptr %10, align 4, !tbaa !17
  %68 = call i64 @rb_int2num_inline(i32 noundef %67)
  %69 = call i64 @rb_ary_push(i64 noundef %66, i64 noundef %68)
  %70 = load i64, ptr %13, align 8, !tbaa !6
  %71 = load ptr, ptr %6, align 8, !tbaa !43
  %72 = icmp ne ptr %71, null
  br i1 %72, label %73, label %76

73:                                               ; preds = %56
  %74 = load ptr, ptr %6, align 8, !tbaa !43
  %75 = call i64 @asn1time_to_time(ptr noundef %74)
  br label %77

76:                                               ; preds = %56
  br label %77

77:                                               ; preds = %76, %73
  %78 = phi i64 [ %75, %73 ], [ 4, %76 ]
  %79 = call i64 @rb_ary_push(i64 noundef %70, i64 noundef %78)
  %80 = load i64, ptr %13, align 8, !tbaa !6
  %81 = load ptr, ptr %7, align 8, !tbaa !43
  %82 = icmp ne ptr %81, null
  br i1 %82, label %83, label %86

83:                                               ; preds = %77
  %84 = load ptr, ptr %7, align 8, !tbaa !43
  %85 = call i64 @asn1time_to_time(ptr noundef %84)
  br label %87

86:                                               ; preds = %77
  br label %87

87:                                               ; preds = %86, %83
  %88 = phi i64 [ %85, %83 ], [ 4, %86 ]
  %89 = call i64 @rb_ary_push(i64 noundef %80, i64 noundef %88)
  %90 = load i64, ptr %13, align 8, !tbaa !6
  %91 = load ptr, ptr %8, align 8, !tbaa !43
  %92 = icmp ne ptr %91, null
  br i1 %92, label %93, label %96

93:                                               ; preds = %87
  %94 = load ptr, ptr %8, align 8, !tbaa !43
  %95 = call i64 @asn1time_to_time(ptr noundef %94)
  br label %97

96:                                               ; preds = %87
  br label %97

97:                                               ; preds = %96, %93
  %98 = phi i64 [ %95, %93 ], [ 4, %96 ]
  %99 = call i64 @rb_ary_push(i64 noundef %90, i64 noundef %98)
  %100 = call i64 @rb_ary_new()
  store i64 %100, ptr %14, align 8, !tbaa !6
  %101 = load ptr, ptr %4, align 8, !tbaa !46
  %102 = call i32 @OCSP_SINGLERESP_get_ext_count(ptr noundef %101)
  store i32 %102, ptr %16, align 4, !tbaa !17
  store i32 0, ptr %18, align 4, !tbaa !17
  br label %103

103:                                              ; preds = %115, %97
  %104 = load i32, ptr %18, align 4, !tbaa !17
  %105 = load i32, ptr %16, align 4, !tbaa !17
  %106 = icmp slt i32 %104, %105
  br i1 %106, label %107, label %118

107:                                              ; preds = %103
  %108 = load ptr, ptr %4, align 8, !tbaa !46
  %109 = load i32, ptr %18, align 4, !tbaa !17
  %110 = call ptr @OCSP_SINGLERESP_get_ext(ptr noundef %108, i32 noundef %109)
  store ptr %110, ptr %11, align 8, !tbaa !48
  %111 = load i64, ptr %14, align 8, !tbaa !6
  %112 = load ptr, ptr %11, align 8, !tbaa !48
  %113 = call i64 @ossl_x509ext_new(ptr noundef %112)
  %114 = call i64 @rb_ary_push(i64 noundef %111, i64 noundef %113)
  br label %115

115:                                              ; preds = %107
  %116 = load i32, ptr %18, align 4, !tbaa !17
  %117 = add nsw i32 %116, 1
  store i32 %117, ptr %18, align 4, !tbaa !17
  br label %103, !llvm.loop !51

118:                                              ; preds = %103
  %119 = load i64, ptr %13, align 8, !tbaa !6
  %120 = load i64, ptr %14, align 8, !tbaa !6
  %121 = call i64 @rb_ary_push(i64 noundef %119, i64 noundef %120)
  %122 = load i64, ptr %12, align 8, !tbaa !6
  %123 = load i64, ptr %13, align 8, !tbaa !6
  %124 = call i64 @rb_ary_push(i64 noundef %122, i64 noundef %123)
  br label %125

125:                                              ; preds = %118, %48, %42
  %126 = load i32, ptr %17, align 4, !tbaa !17
  %127 = add nsw i32 %126, 1
  store i32 %127, ptr %17, align 4, !tbaa !17
  br label %32, !llvm.loop !52

128:                                              ; preds = %32
  %129 = load i64, ptr %12, align 8, !tbaa !6
  call void @llvm.lifetime.end.p0(i64 4, ptr %18) #15
  call void @llvm.lifetime.end.p0(i64 4, ptr %17) #15
  call void @llvm.lifetime.end.p0(i64 4, ptr %16) #15
  call void @llvm.lifetime.end.p0(i64 4, ptr %15) #15
  call void @llvm.lifetime.end.p0(i64 8, ptr %14) #15
  call void @llvm.lifetime.end.p0(i64 8, ptr %13) #15
  call void @llvm.lifetime.end.p0(i64 8, ptr %12) #15
  call void @llvm.lifetime.end.p0(i64 8, ptr %11) #15
  call void @llvm.lifetime.end.p0(i64 4, ptr %10) #15
  call void @llvm.lifetime.end.p0(i64 4, ptr %9) #15
  call void @llvm.lifetime.end.p0(i64 8, ptr %8) #15
  call void @llvm.lifetime.end.p0(i64 8, ptr %7) #15
  call void @llvm.lifetime.end.p0(i64 8, ptr %6) #15
  call void @llvm.lifetime.end.p0(i64 8, ptr %5) #15
  call void @llvm.lifetime.end.p0(i64 8, ptr %4) #15
  call void @llvm.lifetime.end.p0(i64 8, ptr %3) #15
  ret i64 %129
}