; Function Attrs: nounwind sspstrong uwtable
define internal i64 @ossl_ocspbres_get_status(i64 noundef %0) #0 {
  %2 = alloca ptr, align 8
  %3 = alloca ptr, align 8
  %4 = alloca ptr, align 8
  %5 = alloca i32, align 4
  call void @llvm.lifetime.start.p0(i64 8, ptr nonnull %2) #5
  call void @llvm.lifetime.start.p0(i64 8, ptr nonnull %3) #5
  call void @llvm.lifetime.start.p0(i64 8, ptr nonnull %4) #5
  call void @llvm.lifetime.start.p0(i64 4, ptr nonnull %5) #5
  %6 = tail call ptr @rb_check_typeddata(i64 noundef %0, ptr noundef nonnull @ossl_ocsp_basicresp_type) #5
  %.not = icmp eq ptr %6, null
  br i1 %.not, label %7, label %9

7:                                                ; preds = %1
  %8 = load i64, ptr @rb_eRuntimeError, align 8, !tbaa !6
  tail call void (i64, ptr, ...) @ossl_raise(i64 noundef %8, ptr noundef nonnull @.str.75) #6
  unreachable

9:                                                ; preds = %1
  %10 = tail call i64 @rb_ary_new() #5
  %11 = tail call i32 @OCSP_resp_count(ptr noundef nonnull %6) #5
  %12 = icmp sgt i32 %11, 0
  br i1 %12, label %.lr.ph48, label %._crit_edge49

.lr.ph48:                                         ; preds = %9, %64
  %.03246 = phi i32 [ %65, %64 ], [ 0, %9 ]
  %13 = call ptr @OCSP_resp_get0(ptr noundef nonnull %6, i32 noundef %.03246) #5
  %.not40 = icmp eq ptr %13, null
  br i1 %.not40, label %64, label %14

14:                                               ; preds = %.lr.ph48
  store ptr null, ptr %4, align 8, !tbaa !62
  store ptr null, ptr %3, align 8, !tbaa !62
  store ptr null, ptr %2, align 8, !tbaa !62
  %15 = call i32 @OCSP_single_get0_status(ptr noundef nonnull %13, ptr noundef nonnull %5, ptr noundef nonnull %2, ptr noundef nonnull %3, ptr noundef nonnull %4) #5
  %16 = icmp slt i32 %15, 0
  br i1 %16, label %64, label %17

17:                                               ; preds = %14
  %18 = call ptr @OCSP_SINGLERESP_get0_id(ptr noundef nonnull %13) #5
  %19 = call ptr @OCSP_CERTID_dup(ptr noundef %18) #5
  %.not41 = icmp eq ptr %19, null
  br i1 %.not41, label %20, label %ossl_ocspcertid_new.exit

20:                                               ; preds = %17
  %21 = load i64, ptr @eOCSPError, align 8, !tbaa !6
  call void (i64, ptr, ...) @ossl_raise(i64 noundef %21, ptr noundef null) #6
  unreachable

ossl_ocspcertid_new.exit:                         ; preds = %17
  %22 = call i64 @rb_ary_new() #5
  %23 = load i64, ptr @cOCSPCertId, align 8, !tbaa !6
  %24 = call i64 @rb_data_typed_object_wrap(i64 noundef %23, ptr noundef null, ptr noundef nonnull @ossl_ocsp_certid_type) #5
  %25 = inttoptr i64 %24 to ptr
  %26 = getelementptr inbounds nuw i8, ptr %25, i64 32
  store ptr %19, ptr %26, align 8, !tbaa !10
  %27 = call i64 @rb_ary_push(i64 noundef %22, i64 noundef %24) #5
  %28 = shl nuw i32 %15, 1
  %29 = or disjoint i32 %28, 1
  %30 = zext i32 %29 to i64
  %31 = call i64 @rb_ary_push(i64 noundef %22, i64 noundef %30) #5
  %32 = load i32, ptr %5, align 4, !tbaa !57
  %33 = sext i32 %32 to i64
  %34 = shl nsw i64 %33, 1
  %35 = or disjoint i64 %34, 1
  %36 = call i64 @rb_ary_push(i64 noundef %22, i64 noundef %35) #5
  %37 = load ptr, ptr %2, align 8, !tbaa !62
  %.not42 = icmp eq ptr %37, null
  br i1 %.not42, label %40, label %38

38:                                               ; preds = %ossl_ocspcertid_new.exit
  %39 = call i64 @asn1time_to_time(ptr noundef nonnull %37) #5
  br label %40

40:                                               ; preds = %ossl_ocspcertid_new.exit, %38
  %41 = phi i64 [ %39, %38 ], [ 4, %ossl_ocspcertid_new.exit ]
  %42 = call i64 @rb_ary_push(i64 noundef %22, i64 noundef %41) #5
  %43 = load ptr, ptr %3, align 8, !tbaa !62
  %.not43 = icmp eq ptr %43, null
  br i1 %.not43, label %46, label %44

44:                                               ; preds = %40
  %45 = call i64 @asn1time_to_time(ptr noundef nonnull %43) #5
  br label %46

46:                                               ; preds = %40, %44
  %47 = phi i64 [ %45, %44 ], [ 4, %40 ]
  %48 = call i64 @rb_ary_push(i64 noundef %22, i64 noundef %47) #5
  %49 = load ptr, ptr %4, align 8, !tbaa !62
  %.not44 = icmp eq ptr %49, null
  br i1 %.not44, label %52, label %50

50:                                               ; preds = %46
  %51 = call i64 @asn1time_to_time(ptr noundef nonnull %49) #5
  br label %52

52:                                               ; preds = %46, %50
  %53 = phi i64 [ %51, %50 ], [ 4, %46 ]
  %54 = call i64 @rb_ary_push(i64 noundef %22, i64 noundef %53) #5
  %55 = call i64 @rb_ary_new() #5
  %56 = call i32 @OCSP_SINGLERESP_get_ext_count(ptr noundef nonnull %13) #5
  %57 = icmp sgt i32 %56, 0
  br i1 %57, label %.lr.ph, label %._crit_edge

.lr.ph:                                           ; preds = %52, %.lr.ph
  %.045 = phi i32 [ %61, %.lr.ph ], [ 0, %52 ]
  %58 = call ptr @OCSP_SINGLERESP_get_ext(ptr noundef nonnull %13, i32 noundef %.045) #5
  %59 = call i64 @ossl_x509ext_new(ptr noundef %58) #5
  %60 = call i64 @rb_ary_push(i64 noundef %55, i64 noundef %59) #5
  %61 = add nuw nsw i32 %.045, 1
  %exitcond.not = icmp eq i32 %61, %56
  br i1 %exitcond.not, label %._crit_edge, label %.lr.ph, !llvm.loop !64

._crit_edge:                                      ; preds = %.lr.ph, %52
  %62 = call i64 @rb_ary_push(i64 noundef %22, i64 noundef %55) #5
  %63 = call i64 @rb_ary_push(i64 noundef %10, i64 noundef %22) #5
  br label %64

64:                                               ; preds = %14, %.lr.ph48, %._crit_edge
  %65 = add nuw nsw i32 %.03246, 1
  %exitcond50.not = icmp eq i32 %65, %11
  br i1 %exitcond50.not, label %._crit_edge49, label %.lr.ph48, !llvm.loop !65

._crit_edge49:                                    ; preds = %64, %9
  call void @llvm.lifetime.end.p0(i64 4, ptr nonnull %5) #5
  call void @llvm.lifetime.end.p0(i64 8, ptr nonnull %4) #5
  call void @llvm.lifetime.end.p0(i64 8, ptr nonnull %3) #5
  call void @llvm.lifetime.end.p0(i64 8, ptr nonnull %2) #5
  ret i64 %10
}